target datalayout = "e-m:e-p270:32:32-p271:32:32-p272:64:64-i64:64-i128:128-f80:128-n8:16:32:64-S128"
target triple = "x86_64-pc-linux-gnu"

%struct._address = type { i32, i32, ptr, ptr }

; Function Attrs: nounwind null_pointer_is_valid sspstrong uwtable
define internal i32 @arcnet_str_len(ptr noundef %0) #2 {
  %2 = alloca ptr, align 8
  store ptr %0, ptr %2, align 8
  ret i32 5
}

; Function Attrs: null_pointer_is_valid sspstrong uwtable
define internal i32 @arcnet_to_str(ptr noundef %0, ptr noundef %1, i32 noundef %2) #0 {
  %4 = alloca ptr, align 8
  %5 = alloca ptr, align 8
  %6 = alloca i32, align 4
  store ptr %0, ptr %4, align 8
  store ptr %1, ptr %5, align 8
  store i32 %2, ptr %6, align 4
  %7 = load ptr, ptr %5, align 8
  %8 = getelementptr i8, ptr %7, i32 1
  store ptr %8, ptr %5, align 8
  store i8 48, ptr %7, align 1
  %9 = load ptr, ptr %5, align 8
  %10 = getelementptr i8, ptr %9, i32 1
  store ptr %10, ptr %5, align 8
  store i8 120, ptr %9, align 1
  %11 = load ptr, ptr %5, align 8
  %12 = load ptr, ptr %4, align 8
  %13 = getelementptr inbounds nuw %struct._address, ptr %12, i32 0, i32 2
  %14 = load ptr, ptr %13, align 8
  %15 = call ptr @bytes_to_hexstr(ptr noundef %11, ptr noundef %14, i64 noundef 1)
  store ptr %15, ptr %5, align 8
  %16 = load ptr, ptr %5, align 8
  store i8 0, ptr %16, align 1
  %17 = load ptr, ptr %4, align 8
  %18 = call i32 @arcnet_str_len(ptr noundef %17)
  ret i32 %18
}