; Function Attrs: null_pointer_is_valid sspstrong uwtable
define internal noundef i32 @arcnet_to_str(ptr noundef readonly captures(none) %0, ptr noundef initializes((0, 2)) %1, i32 %2) #0 {
  %4 = getelementptr i8, ptr %1, i64 1
  store i8 48, ptr %1, align 1
  %5 = getelementptr i8, ptr %1, i64 2
  store i8 120, ptr %4, align 1
  %6 = getelementptr inbounds nuw i8, ptr %0, i64 8
  %7 = load ptr, ptr %6, align 8
  %8 = tail call ptr @bytes_to_hexstr(ptr noundef %5, ptr noundef %7, i64 noundef 1)
  store i8 0, ptr %8, align 1
  ret i32 5
}